; ModuleID = 'source-C-CXX/10/1107.cpp'
source_filename = "source-C-CXX/10/1107.cpp"
target datalayout = "e-m:e-p270:32:32-p271:32:32-p272:64:64-i64:64-f80:128-n8:16:32:64-S128"
target triple = "x86_64-pc-linux-gnu"

%"class.std::ios_base::Init" = type { i8 }
%"class.std::basic_istream" = type { i32 (...)**, i64, %"class.std::basic_ios" }
%"class.std::basic_ios" = type { %"class.std::ios_base", %"class.std::basic_ostream"*, i8, i8, %"class.std::basic_streambuf"*, %"class.std::ctype"*, %"class.std::num_put"*, %"class.std::num_get"* }
%"class.std::ios_base" = type { i32 (...)**, i64, i64, i32, i32, i32, %"struct.std::ios_base::_Callback_list"*, %"struct.std::ios_base::_Words", [8 x %"struct.std::ios_base::_Words"], i32, %"struct.std::ios_base::_Words"*, %"class.std::locale" }
%"struct.std::ios_base::_Callback_list" = type { %"struct.std::ios_base::_Callback_list"*, void (i32, %"class.std::ios_base"*, i32)*, i32, i32 }
%"struct.std::ios_base::_Words" = type { i8*, i64 }
%"class.std::locale" = type { %"class.std::locale::_Impl"* }
%"class.std::locale::_Impl" = type { i32, %"class.std::locale::facet"**, i64, %"class.std::locale::facet"**, i8** }
%"class.std::locale::facet" = type <{ i32 (...)**, i32, [4 x i8] }>
%"class.std::basic_ostream" = type { i32 (...)**, %"class.std::basic_ios" }
%"class.std::basic_streambuf" = type { i32 (...)**, i8*, i8*, i8*, i8*, i8*, i8*, %"class.std::locale" }
%"class.std::ctype" = type <{ %"class.std::locale::facet.base", [4 x i8], %struct.__locale_struct*, i8, [7 x i8], i32*, i32*, i16*, i8, [256 x i8], [256 x i8], i8, [6 x i8] }>
%"class.std::locale::facet.base" = type <{ i32 (...)**, i32 }>
%struct.__locale_struct = type { [13 x %struct.__locale_data*], i16*, i32*, i32*, [13 x i8*] }
%struct.__locale_data = type opaque
%"class.std::num_put" = type { %"class.std::locale::facet.base", [4 x i8] }
%"class.std::num_get" = type { %"class.std::locale::facet.base", [4 x i8] }

@_ZStL8__ioinit = internal global %"class.std::ios_base::Init" zeroinitializer, align 1
@__dso_handle = external hidden global i8
@__const.main.a = private unnamed_addr constant [12 x i32] [i32 31, i32 28, i32 31, i32 30, i32 31, i32 30, i32 31, i32 31, i32 30, i32 31, i32 30, i32 31], align 16
@_ZSt3cin = external global %"class.std::basic_istream", align 8
@_ZSt4cout = external global %"class.std::basic_ostream", align 8
@llvm.global_ctors = appending global [1 x { i32, void ()*, i8* }] [{ i32, void ()*, i8* } { i32 65535, void ()* @_GLOBAL__sub_I_1107.cpp, i8* null }]

declare void @_ZNSt8ios_base4InitC1Ev(%"class.std::ios_base::Init"* nonnull align 1 dereferenceable(1)) unnamed_addr #0

; Function Attrs: nounwind
declare void @_ZNSt8ios_base4InitD1Ev(%"class.std::ios_base::Init"* nonnull align 1 dereferenceable(1)) unnamed_addr #1

; Function Attrs: nofree nounwind
declare i32 @__cxa_atexit(void (i8*)*, i8*, i8*) local_unnamed_addr #2

; Function Attrs: mustprogress norecurse sspstrong uwtable
define dso_local i32 @main() local_unnamed_addr #3 {
  %1 = alloca [12 x i32], align 16
  %2 = alloca i32, align 4
  %3 = alloca i32, align 4
  %4 = alloca i32, align 4
  %5 = bitcast [12 x i32]* %1 to i8*
  call void @llvm.lifetime.start.p0i8(i64 48, i8* nonnull %5) #9
  call void @llvm.memcpy.p0i8.p0i8.i64(i8* noundef nonnull align 16 dereferenceable(48) %5, i8* noundef nonnull align 16 dereferenceable(48) bitcast ([12 x i32]* @__const.main.a to i8*), i64 48, i1 false)
  %6 = bitcast i32* %2 to i8*
  call void @llvm.lifetime.start.p0i8(i64 4, i8* nonnull %6) #9
  %7 = bitcast i32* %3 to i8*
  call void @llvm.lifetime.start.p0i8(i64 4, i8* nonnull %7) #9
  %8 = bitcast i32* %4 to i8*
  call void @llvm.lifetime.start.p0i8(i64 4, i8* nonnull %8) #9
  %9 = call nonnull align 8 dereferenceable(16) %"class.std::basic_istream"* @_ZNSirsERi(%"class.std::basic_istream"* nonnull align 8 dereferenceable(16) @_ZSt3cin, i32* nonnull align 4 dereferenceable(4) %2)
  %10 = call nonnull align 8 dereferenceable(16) %"class.std::basic_istream"* @_ZNSirsERi(%"class.std::basic_istream"* nonnull align 8 dereferenceable(16) %9, i32* nonnull align 4 dereferenceable(4) %3)
  %11 = call nonnull align 8 dereferenceable(16) %"class.std::basic_istream"* @_ZNSirsERi(%"class.std::basic_istream"* nonnull align 8 dereferenceable(16) %10, i32* nonnull align 4 dereferenceable(4) %4)
  %12 = load i32, i32* %2, align 4, !tbaa !5
  %13 = srem i32 %12, 400
  %14 = icmp eq i32 %13, 0
  br i1 %14, label %21, label %15

15:                                               ; preds = %0
  %16 = srem i32 %12, 100
  %17 = icmp ne i32 %16, 0
  %18 = and i32 %12, 3
  %19 = icmp eq i32 %18, 0
  %20 = and i1 %17, %19
  br i1 %20, label %21, label %23

21:                                               ; preds = %15, %0
  %22 = getelementptr inbounds [12 x i32], [12 x i32]* %1, i64 0, i64 1
  store i32 29, i32* %22, align 4, !tbaa !5
  br label %23

23:                                               ; preds = %15, %21
  %24 = load i32, i32* %3, align 4, !tbaa !5
  %25 = icmp sgt i32 %24, 1
  br i1 %25, label %26, label %122

26:                                               ; preds = %23
  %27 = add nsw i32 %24, -1
  %28 = zext i32 %27 to i64
  %29 = icmp ult i32 %27, 8
  br i1 %29, label %111, label %30

30:                                               ; preds = %26
  %31 = and i64 %28, 4294967288
  %32 = add nsw i64 %31, -8
  %33 = lshr exact i64 %32, 3
  %34 = add nuw nsw i64 %33, 1
  %35 = and i64 %34, 3
  %36 = icmp ult i64 %32, 24
  br i1 %36, label %82, label %37

37:                                               ; preds = %30
  %38 = and i64 %34, 4611686018427387900
  br label %39

39:                                               ; preds = %39, %37
  %40 = phi i64 [ 0, %37 ], [ %79, %39 ]
  %41 = phi <4 x i32> [ zeroinitializer, %37 ], [ %77, %39 ]
  %42 = phi <4 x i32> [ zeroinitializer, %37 ], [ %78, %39 ]
  %43 = phi i64 [ %38, %37 ], [ %80, %39 ]
  %44 = getelementptr inbounds [12 x i32], [12 x i32]* %1, i64 0, i64 %40
  %45 = bitcast i32* %44 to <4 x i32>*
  %46 = load <4 x i32>, <4 x i32>* %45, align 16, !tbaa !5
  %47 = getelementptr inbounds i32, i32* %44, i64 4
  %48 = bitcast i32* %47 to <4 x i32>*
  %49 = load <4 x i32>, <4 x i32>* %48, align 16, !tbaa !5
  %50 = add <4 x i32> %46, %41
  %51 = add <4 x i32> %49, %42
  %52 = or i64 %40, 8
  %53 = getelementptr inbounds [12 x i32], [12 x i32]* %1, i64 0, i64 %52
  %54 = bitcast i32* %53 to <4 x i32>*
  %55 = load <4 x i32>, <4 x i32>* %54, align 16, !tbaa !5
  %56 = getelementptr inbounds i32, i32* %53, i64 4
  %57 = bitcast i32* %56 to <4 x i32>*
  %58 = load <4 x i32>, <4 x i32>* %57, align 16, !tbaa !5
  %59 = add <4 x i32> %55, %50
  %60 = add <4 x i32> %58, %51
  %61 = or i64 %40, 16
  %62 = getelementptr inbounds [12 x i32], [12 x i32]* %1, i64 0, i64 %61
  %63 = bitcast i32* %62 to <4 x i32>*
  %64 = load <4 x i32>, <4 x i32>* %63, align 16, !tbaa !5
  %65 = getelementptr inbounds i32, i32* %62, i64 4
  %66 = bitcast i32* %65 to <4 x i32>*
  %67 = load <4 x i32>, <4 x i32>* %66, align 16, !tbaa !5
  %68 = add <4 x i32> %64, %59
  %69 = add <4 x i32> %67, %60
  %70 = or i64 %40, 24
  %71 = getelementptr inbounds [12 x i32], [12 x i32]* %1, i64 0, i64 %70
  %72 = bitcast i32* %71 to <4 x i32>*
  %73 = load <4 x i32>, <4 x i32>* %72, align 16, !tbaa !5
  %74 = getelementptr inbounds i32, i32* %71, i64 4
  %75 = bitcast i32* %74 to <4 x i32>*
  %76 = load <4 x i32>, <4 x i32>* %75, align 16, !tbaa !5
  %77 = add <4 x i32> %73, %68
  %78 = add <4 x i32> %76, %69
  %79 = add nuw i64 %40, 32
  %80 = add i64 %43, -4
  %81 = icmp eq i64 %80, 0
  br i1 %81, label %82, label %39, !llvm.loop !9

82:                                               ; preds = %39, %30
  %83 = phi <4 x i32> [ undef, %30 ], [ %77, %39 ]
  %84 = phi <4 x i32> [ undef, %30 ], [ %78, %39 ]
  %85 = phi i64 [ 0, %30 ], [ %79, %39 ]
  %86 = phi <4 x i32> [ zeroinitializer, %30 ], [ %77, %39 ]
  %87 = phi <4 x i32> [ zeroinitializer, %30 ], [ %78, %39 ]
  %88 = icmp eq i64 %35, 0
  br i1 %88, label %105, label %89

89:                                               ; preds = %82, %89
  %90 = phi i64 [ %102, %89 ], [ %85, %82 ]
  %91 = phi <4 x i32> [ %100, %89 ], [ %86, %82 ]
  %92 = phi <4 x i32> [ %101, %89 ], [ %87, %82 ]
  %93 = phi i64 [ %103, %89 ], [ %35, %82 ]
  %94 = getelementptr inbounds [12 x i32], [12 x i32]* %1, i64 0, i64 %90
  %95 = bitcast i32* %94 to <4 x i32>*
  %96 = load <4 x i32>, <4 x i32>* %95, align 16, !tbaa !5
  %97 = getelementptr inbounds i32, i32* %94, i64 4
  %98 = bitcast i32* %97 to <4 x i32>*
  %99 = load <4 x i32>, <4 x i32>* %98, align 16, !tbaa !5
  %100 = add <4 x i32> %96, %91
  %101 = add <4 x i32> %99, %92
  %102 = add nuw i64 %90, 8
  %103 = add i64 %93, -1
  %104 = icmp eq i64 %103, 0
  br i1 %104, label %105, label %89, !llvm.loop !12

105:                                              ; preds = %89, %82
  %106 = phi <4 x i32> [ %83, %82 ], [ %100, %89 ]
  %107 = phi <4 x i32> [ %84, %82 ], [ %101, %89 ]
  %108 = add <4 x i32> %107, %106
  %109 = call i32 @llvm.vector.reduce.add.v4i32(<4 x i32> %108)
  %110 = icmp eq i64 %31, %28
  br i1 %110, label %122, label %111

111:                                              ; preds = %26, %105
  %112 = phi i64 [ 0, %26 ], [ %31, %105 ]
  %113 = phi i32 [ 0, %26 ], [ %109, %105 ]
  br label %114

114:                                              ; preds = %111, %114
  %115 = phi i64 [ %120, %114 ], [ %112, %111 ]
  %116 = phi i32 [ %119, %114 ], [ %113, %111 ]
  %117 = getelementptr inbounds [12 x i32], [12 x i32]* %1, i64 0, i64 %115
  %118 = load i32, i32* %117, align 4, !tbaa !5
  %119 = add nsw i32 %118, %116
  %120 = add nuw nsw i64 %115, 1
  %121 = icmp eq i64 %120, %28
  br i1 %121, label %122, label %114, !llvm.loop !14

122:                                              ; preds = %114, %105, %23
  %123 = phi i32 [ 0, %23 ], [ %109, %105 ], [ %119, %114 ]
  %124 = load i32, i32* %4, align 4, !tbaa !5
  %125 = add nsw i32 %124, %123
  %126 = call nonnull align 8 dereferenceable(8) %"class.std::basic_ostream"* @_ZNSolsEi(%"class.std::basic_ostream"* nonnull align 8 dereferenceable(8) @_ZSt4cout, i32 %125)
  %127 = bitcast %"class.std::basic_ostream"* %126 to i8**
  %128 = load i8*, i8** %127, align 8, !tbaa !16
  %129 = getelementptr i8, i8* %128, i64 -24
  %130 = bitcast i8* %129 to i64*
  %131 = load i64, i64* %130, align 8
  %132 = bitcast %"class.std::basic_ostream"* %126 to i8*
  %133 = add nsw i64 %131, 240
  %134 = getelementptr inbounds i8, i8* %132, i64 %133
  %135 = bitcast i8* %134 to %"class.std::ctype"**
  %136 = load %"class.std::ctype"*, %"class.std::ctype"** %135, align 8, !tbaa !18
  %137 = icmp eq %"class.std::ctype"* %136, null
  br i1 %137, label %138, label %139

138:                                              ; preds = %122
  call void @_ZSt16__throw_bad_castv() #10
  unreachable

139:                                              ; preds = %122
  %140 = getelementptr inbounds %"class.std::ctype", %"class.std::ctype"* %136, i64 0, i32 8
  %141 = load i8, i8* %140, align 8, !tbaa !22
  %142 = icmp eq i8 %141, 0
  br i1 %142, label %146, label %143

143:                                              ; preds = %139
  %144 = getelementptr inbounds %"class.std::ctype", %"class.std::ctype"* %136, i64 0, i32 9, i64 10
  %145 = load i8, i8* %144, align 1, !tbaa !24
  br label %152

146:                                              ; preds = %139
  call void @_ZNKSt5ctypeIcE13_M_widen_initEv(%"class.std::ctype"* nonnull align 8 dereferenceable(570) %136)
  %147 = bitcast %"class.std::ctype"* %136 to i8 (%"class.std::ctype"*, i8)***
  %148 = load i8 (%"class.std::ctype"*, i8)**, i8 (%"class.std::ctype"*, i8)*** %147, align 8, !tbaa !16
  %149 = getelementptr inbounds i8 (%"class.std::ctype"*, i8)*, i8 (%"class.std::ctype"*, i8)** %148, i64 6
  %150 = load i8 (%"class.std::ctype"*, i8)*, i8 (%"class.std::ctype"*, i8)** %149, align 8
  %151 = call signext i8 %150(%"class.std::ctype"* nonnull align 8 dereferenceable(570) %136, i8 signext 10)
  br label %152

152:                                              ; preds = %143, %146
  %153 = phi i8 [ %145, %143 ], [ %151, %146 ]
  %154 = call nonnull align 8 dereferenceable(8) %"class.std::basic_ostream"* @_ZNSo3putEc(%"class.std::basic_ostream"* nonnull align 8 dereferenceable(8) %126, i8 signext %153)
  %155 = call nonnull align 8 dereferenceable(8) %"class.std::basic_ostream"* @_ZNSo5flushEv(%"class.std::basic_ostream"* nonnull align 8 dereferenceable(8) %154)
  call void @llvm.lifetime.end.p0i8(i64 4, i8* nonnull %8) #9
  call void @llvm.lifetime.end.p0i8(i64 4, i8* nonnull %7) #9
  call void @llvm.lifetime.end.p0i8(i64 4, i8* nonnull %6) #9
  call void @llvm.lifetime.end.p0i8(i64 48, i8* nonnull %5) #9
  ret i32 0
}

; Function Attrs: argmemonly mustprogress nofree nosync nounwind willreturn
declare void @llvm.lifetime.start.p0i8(i64 immarg, i8* nocapture) #4

; Function Attrs: argmemonly mustprogress nofree nounwind willreturn
declare void @llvm.memcpy.p0i8.p0i8.i64(i8* noalias nocapture writeonly, i8* noalias nocapture readonly, i64, i1 immarg) #5

declare nonnull align 8 dereferenceable(16) %"class.std::basic_istream"* @_ZNSirsERi(%"class.std::basic_istream"* nonnull align 8 dereferenceable(16), i32* nonnull align 4 dereferenceable(4)) local_unnamed_addr #0

declare nonnull align 8 dereferenceable(8) %"class.std::basic_ostream"* @_ZNSolsEi(%"class.std::basic_ostream"* nonnull align 8 dereferenceable(8), i32) local_unnamed_addr #0

; Function Attrs: argmemonly mustprogress nofree nosync nounwind willreturn
declare void @llvm.lifetime.end.p0i8(i64 immarg, i8* nocapture) #4

declare nonnull align 8 dereferenceable(8) %"class.std::basic_ostream"* @_ZNSo3putEc(%"class.std::basic_ostream"* nonnull align 8 dereferenceable(8), i8 signext) local_unnamed_addr #0

declare nonnull align 8 dereferenceable(8) %"class.std::basic_ostream"* @_ZNSo5flushEv(%"class.std::basic_ostream"* nonnull align 8 dereferenceable(8)) local_unnamed_addr #0

; Function Attrs: noreturn
declare void @_ZSt16__throw_bad_castv() local_unnamed_addr #6

declare void @_ZNKSt5ctypeIcE13_M_widen_initEv(%"class.std::ctype"* nonnull align 8 dereferenceable(570)) local_unnamed_addr #0

; Function Attrs: sspstrong uwtable
define internal void @_GLOBAL__sub_I_1107.cpp() #7 section ".text.startup" {
  tail call void @_ZNSt8ios_base4InitC1Ev(%"class.std::ios_base::Init"* nonnull align 1 dereferenceable(1) @_ZStL8__ioinit)
  %1 = tail call i32 @__cxa_atexit(void (i8*)* bitcast (void (%"class.std::ios_base::Init"*)* @_ZNSt8ios_base4InitD1Ev to void (i8*)*), i8* getelementptr inbounds (%"class.std::ios_base::Init", %"class.std::ios_base::Init"* @_ZStL8__ioinit, i64 0, i32 0), i8* nonnull @__dso_handle) #9
  ret void
}

; Function Attrs: nofree nosync nounwind readnone willreturn
declare i32 @llvm.vector.reduce.add.v4i32(<4 x i32>) #8


!llvm.module.flags = !{!0, !1, !2, !3}
!llvm.ident = !{!4}

!0 = !{i32 1, !"wchar_size", i32 4}
!1 = !{i32 7, !"PIC Level", i32 2}
!2 = !{i32 7, !"PIE Level", i32 2}
!3 = !{i32 7, !"uwtable", i32 1}
!4 = !{!"clang version 13.0.0"}
!5 = !{!6, !6, i64 0}
!6 = !{!"int", !7, i64 0}
!7 = !{!"omnipotent char", !8, i64 0}
!8 = !{!"Simple C++ TBAA"}
!9 = distinct !{!9, !10, !11}
!10 = !{!"llvm.loop.mustprogress"}
!11 = !{!"llvm.loop.isvectorized", i32 1}
!12 = distinct !{!12, !13}
!13 = !{!"llvm.loop.unroll.disable"}
!14 = distinct !{!14, !10, !15, !11}
!15 = !{!"llvm.loop.unroll.runtime.disable"}
!16 = !{!17, !17, i64 0}
!17 = !{!"vtable pointer", !8, i64 0}
!18 = !{!19, !20, i64 240}
!19 = !{!"_ZTSSt9basic_iosIcSt11char_traitsIcEE", !20, i64 216, !7, i64 224, !21, i64 225, !20, i64 232, !20, i64 240, !20, i64 248, !20, i64 256}
!20 = !{!"any pointer", !7, i64 0}
!21 = !{!"bool", !7, i64 0}
!22 = !{!23, !7, i64 56}
!23 = !{!"_ZTSSt5ctypeIcE", !20, i64 16, !21, i64 24, !20, i64 32, !20, i64 40, !20, i64 48, !7, i64 56, !7, i64 57, !7, i64 313, !7, i64 569}
!24 = !{!7, !7, i64 0}
